target datalayout = "e-m:e-p270:32:32-p271:32:32-p272:64:64-i64:64-i128:128-f80:128-n8:16:32:64-S128"
target triple = "x86_64-pc-linux-gnu"

%struct.ossl_quic_tx_packetiser_st = type { %struct.ossl_quic_tx_packetiser_args_st, ptr, i64, ptr, ptr, %struct.quic_fifd_st, [3 x i64], %struct.OSSL_TIME, i64, i16, %struct.ossl_quic_frame_conn_close_st, i64, i64, [4 x %struct.txp_el], ptr, ptr, ptr, ptr, ptr }
%struct.ossl_quic_tx_packetiser_args_st = type { %struct.quic_conn_id_st, %struct.quic_conn_id_st, %union.bio_addr_st, i32, ptr, ptr, ptr, ptr, ptr, ptr, ptr, ptr, ptr, ptr, ptr, ptr, ptr, ptr, ptr, i32, [3 x ptr] }
%struct.quic_conn_id_st = type { i8, [20 x i8] }
%union.bio_addr_st = type { %struct.sockaddr_in6, [84 x i8] }
%struct.sockaddr_in6 = type { i16, i16, i32, %struct.in6_addr, i32 }
%struct.in6_addr = type { %union.anon }
%union.anon = type { [4 x i32] }
%struct.quic_fifd_st = type { ptr, ptr, ptr, ptr, ptr, ptr, ptr, ptr, ptr, ptr, ptr, ptr, ptr }
%struct.OSSL_TIME = type { i64 }
%struct.ossl_quic_frame_conn_close_st = type { i8, i64, i64, ptr, i64 }
%struct.txp_el = type { ptr, i64, ptr, i64 }

@.str = private unnamed_addr constant [31 x i8] c"../openssl/ssl/quic/quic_txp.c\00", align 1

; Function Attrs: nounwind uwtable
define internal i32 @txp_check_token_len(i64 noundef %0, i64 noundef %1) #0 {
  %3 = alloca i32, align 4
  %4 = alloca i64, align 8
  %5 = alloca i64, align 8
  store i64 %0, ptr %4, align 8, !tbaa !28
  store i64 %1, ptr %5, align 8, !tbaa !28
  %6 = load i64, ptr %4, align 8, !tbaa !28
  %7 = icmp eq i64 %6, 0
  br i1 %7, label %8, label %9

8:                                                ; preds = %2
  store i32 1, ptr %3, align 4
  br label %25

9:                                                ; preds = %2
  %10 = load i64, ptr %4, align 8, !tbaa !28
  %11 = load i64, ptr %5, align 8, !tbaa !28
  %12 = icmp uge i64 %10, %11
  br i1 %12, label %13, label %14

13:                                               ; preds = %9
  store i32 0, ptr %3, align 4
  br label %25

14:                                               ; preds = %9
  %15 = load i64, ptr %5, align 8, !tbaa !28
  %16 = icmp uge i64 160, %15
  br i1 %16, label %17, label %18

17:                                               ; preds = %14
  store i32 0, ptr %3, align 4
  br label %25

18:                                               ; preds = %14
  %19 = load i64, ptr %4, align 8, !tbaa !28
  %20 = load i64, ptr %5, align 8, !tbaa !28
  %21 = sub i64 %20, 160
  %22 = icmp ugt i64 %19, %21
  br i1 %22, label %23, label %24

23:                                               ; preds = %18
  store i32 0, ptr %3, align 4
  br label %25

24:                                               ; preds = %18
  store i32 1, ptr %3, align 4
  br label %25

25:                                               ; preds = %24, %23, %17, %13, %8
  %26 = load i32, ptr %3, align 4
  ret i32 %26
}

; Function Attrs: nounwind uwtable
define internal i64 @txp_get_mdpl(ptr noundef %0) #0 {
  %2 = alloca ptr, align 8
  store ptr %0, ptr %2, align 8, !tbaa !3
  %3 = load ptr, ptr %2, align 8, !tbaa !3
  %4 = getelementptr inbounds nuw %struct.ossl_quic_tx_packetiser_st, ptr %3, i32 0, i32 0
  %5 = getelementptr inbounds nuw %struct.ossl_quic_tx_packetiser_args_st, ptr %4, i32 0, i32 4
  %6 = load ptr, ptr %5, align 8, !tbaa !86
  %7 = call i64 @ossl_qtx_get_mdpl(ptr noundef %6)
  ret i64 %7
}

; Function Attrs: nounwind uwtable
define i32 @ossl_quic_tx_packetiser_set_initial_token(ptr noundef %0, ptr noundef %1, i64 noundef %2, ptr noundef %3, ptr noundef %4) #0 {
  %6 = alloca i32, align 4
  %7 = alloca ptr, align 8
  %8 = alloca ptr, align 8
  %9 = alloca i64, align 8
  %10 = alloca ptr, align 8
  %11 = alloca ptr, align 8
  store ptr %0, ptr %7, align 8, !tbaa !3
  store ptr %1, ptr %8, align 8, !tbaa !81
  store i64 %2, ptr %9, align 8, !tbaa !28
  store ptr %3, ptr %10, align 8, !tbaa !53
  store ptr %4, ptr %11, align 8, !tbaa !53
  %12 = load i64, ptr %9, align 8, !tbaa !28
  %13 = load ptr, ptr %7, align 8, !tbaa !3
  %14 = call i64 @txp_get_mdpl(ptr noundef %13)
  %15 = call i32 @txp_check_token_len(i64 noundef %12, i64 noundef %14)
  %16 = icmp ne i32 %15, 0
  br i1 %16, label %18, label %17

17:                                               ; preds = %5
  store i32 0, ptr %6, align 4
  br label %54

18:                                               ; preds = %5
  %19 = load ptr, ptr %7, align 8, !tbaa !3
  %20 = getelementptr inbounds nuw %struct.ossl_quic_tx_packetiser_st, ptr %19, i32 0, i32 1
  %21 = load ptr, ptr %20, align 8, !tbaa !82
  %22 = icmp ne ptr %21, null
  br i1 %22, label %23, label %41

23:                                               ; preds = %18
  %24 = load ptr, ptr %7, align 8, !tbaa !3
  %25 = getelementptr inbounds nuw %struct.ossl_quic_tx_packetiser_st, ptr %24, i32 0, i32 3
  %26 = load ptr, ptr %25, align 8, !tbaa !83
  %27 = icmp ne ptr %26, null
  br i1 %27, label %28, label %41

28:                                               ; preds = %23
  %29 = load ptr, ptr %7, align 8, !tbaa !3
  %30 = getelementptr inbounds nuw %struct.ossl_quic_tx_packetiser_st, ptr %29, i32 0, i32 3
  %31 = load ptr, ptr %30, align 8, !tbaa !83
  %32 = load ptr, ptr %7, align 8, !tbaa !3
  %33 = getelementptr inbounds nuw %struct.ossl_quic_tx_packetiser_st, ptr %32, i32 0, i32 1
  %34 = load ptr, ptr %33, align 8, !tbaa !82
  %35 = load ptr, ptr %7, align 8, !tbaa !3
  %36 = getelementptr inbounds nuw %struct.ossl_quic_tx_packetiser_st, ptr %35, i32 0, i32 2
  %37 = load i64, ptr %36, align 8, !tbaa !84
  %38 = load ptr, ptr %7, align 8, !tbaa !3
  %39 = getelementptr inbounds nuw %struct.ossl_quic_tx_packetiser_st, ptr %38, i32 0, i32 4
  %40 = load ptr, ptr %39, align 8, !tbaa !85
  call void %31(ptr noundef %34, i64 noundef %37, ptr noundef %40)
  br label %41

41:                                               ; preds = %28, %23, %18
  %42 = load ptr, ptr %8, align 8, !tbaa !81
  %43 = load ptr, ptr %7, align 8, !tbaa !3
  %44 = getelementptr inbounds nuw %struct.ossl_quic_tx_packetiser_st, ptr %43, i32 0, i32 1
  store ptr %42, ptr %44, align 8, !tbaa !82
  %45 = load i64, ptr %9, align 8, !tbaa !28
  %46 = load ptr, ptr %7, align 8, !tbaa !3
  %47 = getelementptr inbounds nuw %struct.ossl_quic_tx_packetiser_st, ptr %46, i32 0, i32 2
  store i64 %45, ptr %47, align 8, !tbaa !84
  %48 = load ptr, ptr %10, align 8, !tbaa !53
  %49 = load ptr, ptr %7, align 8, !tbaa !3
  %50 = getelementptr inbounds nuw %struct.ossl_quic_tx_packetiser_st, ptr %49, i32 0, i32 3
  store ptr %48, ptr %50, align 8, !tbaa !83
  %51 = load ptr, ptr %11, align 8, !tbaa !53
  %52 = load ptr, ptr %7, align 8, !tbaa !3
  %53 = getelementptr inbounds nuw %struct.ossl_quic_tx_packetiser_st, ptr %52, i32 0, i32 4
  store ptr %51, ptr %53, align 8, !tbaa !85
  store i32 1, ptr %6, align 4
  br label %54

54:                                               ; preds = %41, %17
  %55 = load i32, ptr %6, align 4
  ret i32 %55
}

; Function Attrs: nounwind uwtable
define void @ossl_quic_tx_packetiser_free(ptr noundef %0) #0 {
  %2 = alloca ptr, align 8
  %3 = alloca i32, align 4
  %4 = alloca i32, align 4
  store ptr %0, ptr %2, align 8, !tbaa !3
  call void @llvm.lifetime.start.p0(i64 4, ptr %3) #7
  %5 = load ptr, ptr %2, align 8, !tbaa !3
  %6 = icmp eq ptr %5, null
  br i1 %6, label %7, label %8

7:                                                ; preds = %1
  store i32 1, ptr %4, align 4
  br label %40

8:                                                ; preds = %1
  %9 = load ptr, ptr %2, align 8, !tbaa !3
  %10 = call i32 @ossl_quic_tx_packetiser_set_initial_token(ptr noundef %9, ptr noundef null, i64 noundef 0, ptr noundef null, ptr noundef null)
  %11 = load ptr, ptr %2, align 8, !tbaa !3
  %12 = getelementptr inbounds nuw %struct.ossl_quic_tx_packetiser_st, ptr %11, i32 0, i32 5
  call void @ossl_quic_fifd_cleanup(ptr noundef %12)
  %13 = load ptr, ptr %2, align 8, !tbaa !3
  %14 = getelementptr inbounds nuw %struct.ossl_quic_tx_packetiser_st, ptr %13, i32 0, i32 10
  %15 = getelementptr inbounds nuw %struct.ossl_quic_frame_conn_close_st, ptr %14, i32 0, i32 3
  %16 = load ptr, ptr %15, align 8, !tbaa !74
  call void @CRYPTO_free(ptr noundef %16, ptr noundef @.str, i32 noundef 588)
  store i32 0, ptr %3, align 4, !tbaa !43
  br label %17

17:                                               ; preds = %35, %8
  %18 = load i32, ptr %3, align 4, !tbaa !43
  %19 = icmp ult i32 %18, 4
  br i1 %19, label %20, label %38

20:                                               ; preds = %17
  %21 = load ptr, ptr %2, align 8, !tbaa !3
  %22 = getelementptr inbounds nuw %struct.ossl_quic_tx_packetiser_st, ptr %21, i32 0, i32 13
  %23 = load i32, ptr %3, align 4, !tbaa !43
  %24 = zext i32 %23 to i64
  %25 = getelementptr inbounds nuw [4 x %struct.txp_el], ptr %22, i64 0, i64 %24
  %26 = getelementptr inbounds nuw %struct.txp_el, ptr %25, i32 0, i32 2
  %27 = load ptr, ptr %26, align 8, !tbaa !75
  call void @CRYPTO_free(ptr noundef %27, ptr noundef @.str, i32 noundef 593)
  %28 = load ptr, ptr %2, align 8, !tbaa !3
  %29 = getelementptr inbounds nuw %struct.ossl_quic_tx_packetiser_st, ptr %28, i32 0, i32 13
  %30 = load i32, ptr %3, align 4, !tbaa !43
  %31 = zext i32 %30 to i64
  %32 = getelementptr inbounds nuw [4 x %struct.txp_el], ptr %29, i64 0, i64 %31
  %33 = getelementptr inbounds nuw %struct.txp_el, ptr %32, i32 0, i32 0
  %34 = load ptr, ptr %33, align 8, !tbaa !78
  call void @CRYPTO_free(ptr noundef %34, ptr noundef @.str, i32 noundef 594)
  br label %35

35:                                               ; preds = %20
  %36 = load i32, ptr %3, align 4, !tbaa !43
  %37 = add i32 %36, 1
  store i32 %37, ptr %3, align 4, !tbaa !43
  br label %17, !llvm.loop !79

38:                                               ; preds = %17
  %39 = load ptr, ptr %2, align 8, !tbaa !3
  call void @CRYPTO_free(ptr noundef %39, ptr noundef @.str, i32 noundef 597)
  store i32 0, ptr %4, align 4
  br label %40

40:                                               ; preds = %38, %7
  call void @llvm.lifetime.end.p0(i64 4, ptr %3) #7
  %41 = load i32, ptr %4, align 4
  switch i32 %41, label %43 [
    i32 0, label %42
    i32 1, label %42
  ]

42:                                               ; preds = %40, %40
  ret void

43:                                               ; preds = %40
  unreachable
}