; Function Attrs: nounwind uwtable
define void @ossl_quic_tx_packetiser_free(ptr noundef %0) local_unnamed_addr #3 {
  %2 = icmp eq ptr %0, null
  br i1 %2, label %26, label %3

3:                                                ; preds = %1
  %4 = getelementptr i8, ptr %0, i64 160
  %.val.i = load ptr, ptr %4, align 8, !tbaa !66
  %5 = tail call i64 @ossl_qtx_get_mdpl(ptr noundef %.val.i) #10
  %6 = getelementptr inbounds nuw i8, ptr %0, i64 312
  %7 = load ptr, ptr %6, align 8, !tbaa !67
  %.not18.i = icmp eq ptr %7, null
  br i1 %.not18.i, label %ossl_quic_tx_packetiser_set_initial_token.exit, label %8

8:                                                ; preds = %3
  %9 = getelementptr inbounds nuw i8, ptr %0, i64 328
  %10 = load ptr, ptr %9, align 8, !tbaa !68
  %.not19.i = icmp eq ptr %10, null
  br i1 %.not19.i, label %ossl_quic_tx_packetiser_set_initial_token.exit, label %11

11:                                               ; preds = %8
  %12 = getelementptr inbounds nuw i8, ptr %0, i64 320
  %13 = load i64, ptr %12, align 8, !tbaa !69
  %14 = getelementptr inbounds nuw i8, ptr %0, i64 336
  %15 = load ptr, ptr %14, align 8, !tbaa !70
  tail call void %10(ptr noundef nonnull %7, i64 noundef %13, ptr noundef %15) #10
  br label %ossl_quic_tx_packetiser_set_initial_token.exit

ossl_quic_tx_packetiser_set_initial_token.exit:   ; preds = %3, %8, %11
  %16 = getelementptr inbounds nuw i8, ptr %0, i64 344
  tail call void @llvm.memset.p0.i64(ptr noundef nonnull align 8 dereferenceable(32) %6, i8 0, i64 32, i1 false)
  tail call void @ossl_quic_fifd_cleanup(ptr noundef nonnull %16) #10
  %17 = getelementptr inbounds nuw i8, ptr %0, i64 520
  %18 = load ptr, ptr %17, align 8, !tbaa !71
  tail call void @CRYPTO_free(ptr noundef %18, ptr noundef nonnull @.str, i32 noundef 588) #10
  %19 = getelementptr inbounds nuw i8, ptr %0, i64 552
  br label %20

20:                                               ; preds = %ossl_quic_tx_packetiser_set_initial_token.exit, %20
  %indvars.iv = phi i64 [ 0, %ossl_quic_tx_packetiser_set_initial_token.exit ], [ %indvars.iv.next, %20 ]
  %21 = getelementptr inbounds nuw [4 x %struct.txp_el], ptr %19, i64 0, i64 %indvars.iv
  %22 = getelementptr inbounds nuw i8, ptr %21, i64 16
  %23 = load ptr, ptr %22, align 8, !tbaa !72
  tail call void @CRYPTO_free(ptr noundef %23, ptr noundef nonnull @.str, i32 noundef 593) #10
  %24 = load ptr, ptr %21, align 8, !tbaa !75
  tail call void @CRYPTO_free(ptr noundef %24, ptr noundef nonnull @.str, i32 noundef 594) #10
  %indvars.iv.next = add nuw nsw i64 %indvars.iv, 1
  %exitcond.not = icmp eq i64 %indvars.iv.next, 4
  br i1 %exitcond.not, label %25, label %20, !llvm.loop !76

25:                                               ; preds = %20
  tail call void @CRYPTO_free(ptr noundef nonnull %0, ptr noundef nonnull @.str, i32 noundef 597) #10
  br label %26

26:                                               ; preds = %1, %25
  ret void
}